target datalayout = "e-m:e-p270:32:32-p271:32:32-p272:64:64-i64:64-i128:128-f80:128-n8:16:32:64-S128"
target triple = "x86_64-unknown-linux-gnu"

%class.btVector3 = type { [4 x float] }

; Function Attrs: mustprogress uwtable
define dso_local noundef zeroext i1 @_ZN22SphereTriangleDetector12facecontainsERK9btVector3PS1_RS0_(ptr noundef nonnull align 8 dereferenceable(28) %this, ptr noundef nonnull align 4 dereferenceable(16) %p, ptr noundef %vertices, ptr noundef nonnull align 4 dereferenceable(16) %normal) #3 align 2 {
entry:
  %this.addr = alloca ptr, align 8
  %p.addr = alloca ptr, align 8
  %vertices.addr = alloca ptr, align 8
  %normal.addr = alloca ptr, align 8
  %lp = alloca %class.btVector3, align 4
  %lnormal = alloca %class.btVector3, align 4
  store ptr %this, ptr %this.addr, align 8
  store ptr %p, ptr %p.addr, align 8
  store ptr %vertices, ptr %vertices.addr, align 8
  store ptr %normal, ptr %normal.addr, align 8
  %this1 = load ptr, ptr %this.addr, align 8
  %0 = load ptr, ptr %p.addr, align 8
  call void @llvm.memcpy.p0.p0.i64(ptr align 4 %lp, ptr align 4 %0, i64 16, i1 false)
  %1 = load ptr, ptr %normal.addr, align 8
  call void @llvm.memcpy.p0.p0.i64(ptr align 4 %lnormal, ptr align 4 %1, i64 16, i1 false)
  %2 = load ptr, ptr %vertices.addr, align 8
  %call = call noundef zeroext i1 @_ZN22SphereTriangleDetector15pointInTriangleEPK9btVector3RS1_PS0_(ptr noundef nonnull align 8 dereferenceable(28) %this1, ptr noundef %2, ptr noundef nonnull align 4 dereferenceable(16) %lnormal, ptr noundef %lp)
  ret i1 %call
}