; Function Attrs: mustprogress nofree norecurse nosync nounwind willreturn memory(argmem: readwrite) uwtable
define dso_local noundef zeroext i1 @_ZN22SphereTriangleDetector12facecontainsERK9btVector3PS1_RS0_(ptr nocapture noundef nonnull readnone align 8 dereferenceable(28) %this, ptr nocapture noundef nonnull readonly align 4 dereferenceable(16) %p, ptr nocapture noundef readonly %vertices, ptr nocapture noundef nonnull readonly align 4 dereferenceable(16) %normal) local_unnamed_addr #4 align 2 {
entry:
  %lp = alloca %class.btVector3, align 4
  %lnormal = alloca %class.btVector3, align 4
  call void @llvm.memcpy.p0.p0.i64(ptr noundef nonnull align 4 dereferenceable(16) %lp, ptr noundef nonnull align 4 dereferenceable(16) %p, i64 16, i1 false)
  call void @llvm.memcpy.p0.p0.i64(ptr noundef nonnull align 4 dereferenceable(16) %lnormal, ptr noundef nonnull align 4 dereferenceable(16) %normal, i64 16, i1 false)
  %call = call noundef zeroext i1 @_ZN22SphereTriangleDetector15pointInTriangleEPK9btVector3RS1_PS0_(ptr nonnull align 8 poison, ptr noundef %vertices, ptr noundef nonnull align 4 dereferenceable(16) %lnormal, ptr noundef nonnull %lp)
  ret i1 %call
}